; Function Attrs: mustprogress nofree norecurse nosync nounwind willreturn memory(argmem: read) uwtable
define noundef i64 @_ZN10VertexData14CornerIndexKeyEPKi(ptr nocapture noundef readonly %0) local_unnamed_addr #16 align 2 {
  %2 = load i32, ptr %0, align 4
  %3 = sext i32 %2 to i64
  %4 = getelementptr inbounds i8, ptr %0, i64 4
  %5 = load i32, ptr %4, align 4
  %6 = sext i32 %5 to i64
  %7 = shl nsw i64 %6, 21
  %8 = or i64 %7, %3
  %9 = getelementptr inbounds i8, ptr %0, i64 8
  %10 = load i32, ptr %9, align 4
  %11 = zext i32 %10 to i64
  %12 = shl i64 %11, 42
  %13 = or i64 %8, %12
  ret i64 %13
}